; Function Attrs: nounwind uwtable
define void @png_write_chunk_end(ptr noalias noundef %0) local_unnamed_addr #1 {
  %2 = alloca [4 x i8], align 1
  call void @llvm.lifetime.start.p0(i64 4, ptr nonnull %2) #12
  %3 = icmp eq ptr %0, null
  br i1 %3, label %18, label %4

4:                                                ; preds = %1
  %5 = getelementptr inbounds nuw i8, ptr %0, i64 1196
  store i32 130, ptr %5, align 4, !tbaa !6
  %6 = getelementptr inbounds nuw i8, ptr %0, i64 596
  %7 = load i32, ptr %6, align 4, !tbaa !29
  %8 = lshr i32 %7, 24
  %9 = trunc nuw i32 %8 to i8
  store i8 %9, ptr %2, align 1, !tbaa !3
  %10 = lshr i32 %7, 16
  %11 = trunc i32 %10 to i8
  %12 = getelementptr inbounds nuw i8, ptr %2, i64 1
  store i8 %11, ptr %12, align 1, !tbaa !3
  %13 = lshr i32 %7, 8
  %14 = trunc i32 %13 to i8
  %15 = getelementptr inbounds nuw i8, ptr %2, i64 2
  store i8 %14, ptr %15, align 1, !tbaa !3
  %16 = trunc i32 %7 to i8
  %17 = getelementptr inbounds nuw i8, ptr %2, i64 3
  store i8 %16, ptr %17, align 1, !tbaa !3
  call void @png_write_data(ptr noundef nonnull %0, ptr noundef nonnull %2, i64 noundef 4) #12
  br label %18

18:                                               ; preds = %1, %4
  call void @llvm.lifetime.end.p0(i64 4, ptr nonnull %2) #12
  ret void
}